; Function Attrs: mustprogress nounwind uwtable
define hidden void @_ZN20G1ParScanThreadState16flush_numa_statsEv(ptr nocapture noundef nonnull readonly align 8 dereferenceable(632) %0) local_unnamed_addr #0 align 2 {
  %2 = getelementptr inbounds i8, ptr %0, i64 560
  %3 = load ptr, ptr %2, align 8
  %.not = icmp eq ptr %3, null
  br i1 %.not, label %10, label %4

4:                                                ; preds = %1
  %5 = getelementptr inbounds i8, ptr %0, i64 552
  %6 = load ptr, ptr %5, align 8
  %7 = tail call noundef i32 @_ZNK6G1NUMA23index_of_current_threadEv(ptr noundef nonnull align 8 dereferenceable(56) %6) #13
  %8 = load ptr, ptr %5, align 8
  %9 = load ptr, ptr %2, align 8
  tail call void @_ZN6G1NUMA15copy_statisticsEN11G1NUMAStats13NodeDataItemsEjPm(ptr noundef nonnull align 8 dereferenceable(56) %8, i32 noundef 1, i32 noundef %7, ptr noundef %9) #13
  br label %10

10:                                               ; preds = %4, %1
  ret void
}